ARM GAS  C:\Users\boutavin\AppData\Local\Temp\ccOs6jKd.s 			page 1


   1              		.syntax unified
   2              		.cpu cortex-m3
   3              		.fpu softvfp
   4              		.eabi_attribute 20, 1
   5              		.eabi_attribute 21, 1
   6              		.eabi_attribute 23, 3
   7              		.eabi_attribute 24, 1
   8              		.eabi_attribute 25, 1
   9              		.eabi_attribute 26, 1
  10              		.eabi_attribute 30, 1
  11              		.eabi_attribute 34, 1
  12              		.eabi_attribute 18, 4
  13              		.thumb
  14              		.syntax unified
  15              		.file	"main.c"
  16              		.text
  17              	.Ltext0:
  18              		.cfi_sections	.debug_frame
  19              		.section	.text.StopWheels,"ax",%progbits
  20              		.align	2
  21              		.global	StopWheels
  22              		.thumb
  23              		.thumb_func
  24              		.type	StopWheels, %function
  25              	StopWheels:
  26              	.LFB63:
  27              		.file 1 "main.c"
   1:main.c        **** /* ========================================
   2:main.c        ****  *
   3:main.c        ****  * Copyright YOUR COMPANY, THE YEAR
   4:main.c        ****  * All Rights Reserved
   5:main.c        ****  * UNPUBLISHED, LICENSED SOFTWARE.
   6:main.c        ****  *
   7:main.c        ****  * CONFIDENTIAL AND PROPRIETARY INFORMATION
   8:main.c        ****  * WHICH IS THE PROPERTY OF your company.
   9:main.c        ****  *
  10:main.c        ****  * ========================================
  11:main.c        **** */
  12:main.c        **** #include "project.h"
  13:main.c        **** #include "PWM_all.h"
  14:main.c        **** 
  15:main.c        **** 
  16:main.c        **** 
  17:main.c        **** #define Mot1_mask 0x03
  18:main.c        **** #define Mot2_mask 0x0C
  19:main.c        **** #define Mot3_mask 0x30
  20:main.c        **** #define Mot4_mask 0xC0
  21:main.c        **** 
  22:main.c        **** void StopWheels(){
  28              		.loc 1 22 0
  29              		.cfi_startproc
  30              		@ args = 0, pretend = 0, frame = 0
  31              		@ frame_needed = 0, uses_anonymous_args = 0
  32 0000 08B5     		push	{r3, lr}
  33              		.cfi_def_cfa_offset 8
  34              		.cfi_offset 3, -8
  35              		.cfi_offset 14, -4
ARM GAS  C:\Users\boutavin\AppData\Local\Temp\ccOs6jKd.s 			page 2


  23:main.c        ****     Wheel_Modes_Write(0);
  36              		.loc 1 23 0
  37 0002 0020     		movs	r0, #0
  38 0004 FFF7FEFF 		bl	Wheel_Modes_Write
  39              	.LVL0:
  40 0008 08BD     		pop	{r3, pc}
  41              		.cfi_endproc
  42              	.LFE63:
  43              		.size	StopWheels, .-StopWheels
  44 000a 00BF     		.section	.text.Spin_Right,"ax",%progbits
  45              		.align	2
  46              		.global	Spin_Right
  47              		.thumb
  48              		.thumb_func
  49              		.type	Spin_Right, %function
  50              	Spin_Right:
  51              	.LFB64:
  24:main.c        **** }
  25:main.c        **** 
  26:main.c        **** void Spin_Right(int Vitesse){
  52              		.loc 1 26 0
  53              		.cfi_startproc
  54              		@ args = 0, pretend = 0, frame = 0
  55              		@ frame_needed = 0, uses_anonymous_args = 0
  56              	.LVL1:
  57 0000 10B5     		push	{r4, lr}
  58              		.cfi_def_cfa_offset 8
  59              		.cfi_offset 4, -8
  60              		.cfi_offset 14, -4
  61 0002 0446     		mov	r4, r0
  27:main.c        ****     Wheel_Modes_Write(0xAA);
  62              		.loc 1 27 0
  63 0004 AA20     		movs	r0, #170
  64              	.LVL2:
  65 0006 FFF7FEFF 		bl	Wheel_Modes_Write
  66              	.LVL3:
  28:main.c        ****     PWM_all_WriteCompare1(Vitesse);
  67              		.loc 1 28 0
  68 000a E4B2     		uxtb	r4, r4
  69              	.LVL4:
  70 000c 2046     		mov	r0, r4
  71 000e FFF7FEFF 		bl	PWM_all_WriteCompare1
  72              	.LVL5:
  29:main.c        ****     PWM_all_WriteCompare2(Vitesse);
  73              		.loc 1 29 0
  74 0012 2046     		mov	r0, r4
  75 0014 FFF7FEFF 		bl	PWM_all_WriteCompare2
  76              	.LVL6:
  77 0018 10BD     		pop	{r4, pc}
  78              		.cfi_endproc
  79              	.LFE64:
  80              		.size	Spin_Right, .-Spin_Right
  81 001a 00BF     		.section	.text.Spin_Left,"ax",%progbits
  82              		.align	2
  83              		.global	Spin_Left
  84              		.thumb
  85              		.thumb_func
ARM GAS  C:\Users\boutavin\AppData\Local\Temp\ccOs6jKd.s 			page 3


  86              		.type	Spin_Left, %function
  87              	Spin_Left:
  88              	.LFB65:
  30:main.c        **** }
  31:main.c        **** void Spin_Left(int Vitesse){
  89              		.loc 1 31 0
  90              		.cfi_startproc
  91              		@ args = 0, pretend = 0, frame = 0
  92              		@ frame_needed = 0, uses_anonymous_args = 0
  93              	.LVL7:
  94 0000 10B5     		push	{r4, lr}
  95              		.cfi_def_cfa_offset 8
  96              		.cfi_offset 4, -8
  97              		.cfi_offset 14, -4
  98 0002 0446     		mov	r4, r0
  32:main.c        ****     Wheel_Modes_Write(0x55);
  99              		.loc 1 32 0
 100 0004 5520     		movs	r0, #85
 101              	.LVL8:
 102 0006 FFF7FEFF 		bl	Wheel_Modes_Write
 103              	.LVL9:
  33:main.c        ****     PWM_all_WriteCompare1(Vitesse);
 104              		.loc 1 33 0
 105 000a E4B2     		uxtb	r4, r4
 106              	.LVL10:
 107 000c 2046     		mov	r0, r4
 108 000e FFF7FEFF 		bl	PWM_all_WriteCompare1
 109              	.LVL11:
  34:main.c        ****     PWM_all_WriteCompare2(Vitesse);
 110              		.loc 1 34 0
 111 0012 2046     		mov	r0, r4
 112 0014 FFF7FEFF 		bl	PWM_all_WriteCompare2
 113              	.LVL12:
 114 0018 10BD     		pop	{r4, pc}
 115              		.cfi_endproc
 116              	.LFE65:
 117              		.size	Spin_Left, .-Spin_Left
 118 001a 00BF     		.section	.text.Forward,"ax",%progbits
 119              		.align	2
 120              		.global	Forward
 121              		.thumb
 122              		.thumb_func
 123              		.type	Forward, %function
 124              	Forward:
 125              	.LFB66:
  35:main.c        **** }
  36:main.c        **** void Forward(int Vitesse){
 126              		.loc 1 36 0
 127              		.cfi_startproc
 128              		@ args = 0, pretend = 0, frame = 0
 129              		@ frame_needed = 0, uses_anonymous_args = 0
 130              	.LVL13:
 131 0000 10B5     		push	{r4, lr}
 132              		.cfi_def_cfa_offset 8
 133              		.cfi_offset 4, -8
 134              		.cfi_offset 14, -4
 135 0002 0446     		mov	r4, r0
ARM GAS  C:\Users\boutavin\AppData\Local\Temp\ccOs6jKd.s 			page 4


  37:main.c        ****     Wheel_Modes_Write(0x96);
 136              		.loc 1 37 0
 137 0004 9620     		movs	r0, #150
 138              	.LVL14:
 139 0006 FFF7FEFF 		bl	Wheel_Modes_Write
 140              	.LVL15:
  38:main.c        ****     PWM_all_WriteCompare1(Vitesse);
 141              		.loc 1 38 0
 142 000a E4B2     		uxtb	r4, r4
 143              	.LVL16:
 144 000c 2046     		mov	r0, r4
 145 000e FFF7FEFF 		bl	PWM_all_WriteCompare1
 146              	.LVL17:
  39:main.c        ****     PWM_all_WriteCompare2(Vitesse);
 147              		.loc 1 39 0
 148 0012 2046     		mov	r0, r4
 149 0014 FFF7FEFF 		bl	PWM_all_WriteCompare2
 150              	.LVL18:
 151 0018 10BD     		pop	{r4, pc}
 152              		.cfi_endproc
 153              	.LFE66:
 154              		.size	Forward, .-Forward
 155 001a 00BF     		.section	.text.Backward,"ax",%progbits
 156              		.align	2
 157              		.global	Backward
 158              		.thumb
 159              		.thumb_func
 160              		.type	Backward, %function
 161              	Backward:
 162              	.LFB67:
  40:main.c        **** }
  41:main.c        **** void Backward(int Vitesse){
 163              		.loc 1 41 0
 164              		.cfi_startproc
 165              		@ args = 0, pretend = 0, frame = 0
 166              		@ frame_needed = 0, uses_anonymous_args = 0
 167              	.LVL19:
 168 0000 10B5     		push	{r4, lr}
 169              		.cfi_def_cfa_offset 8
 170              		.cfi_offset 4, -8
 171              		.cfi_offset 14, -4
 172 0002 0446     		mov	r4, r0
  42:main.c        ****     Wheel_Modes_Write(0x69);
 173              		.loc 1 42 0
 174 0004 6920     		movs	r0, #105
 175              	.LVL20:
 176 0006 FFF7FEFF 		bl	Wheel_Modes_Write
 177              	.LVL21:
  43:main.c        ****     PWM_all_WriteCompare1(Vitesse);
 178              		.loc 1 43 0
 179 000a E4B2     		uxtb	r4, r4
 180              	.LVL22:
 181 000c 2046     		mov	r0, r4
 182 000e FFF7FEFF 		bl	PWM_all_WriteCompare1
 183              	.LVL23:
  44:main.c        ****     PWM_all_WriteCompare2(Vitesse);
 184              		.loc 1 44 0
ARM GAS  C:\Users\boutavin\AppData\Local\Temp\ccOs6jKd.s 			page 5


 185 0012 2046     		mov	r0, r4
 186 0014 FFF7FEFF 		bl	PWM_all_WriteCompare2
 187              	.LVL24:
 188 0018 10BD     		pop	{r4, pc}
 189              		.cfi_endproc
 190              	.LFE67:
 191              		.size	Backward, .-Backward
 192 001a 00BF     		.section	.text.ForwardRight,"ax",%progbits
 193              		.align	2
 194              		.global	ForwardRight
 195              		.thumb
 196              		.thumb_func
 197              		.type	ForwardRight, %function
 198              	ForwardRight:
 199              	.LFB68:
  45:main.c        **** }
  46:main.c        **** void ForwardRight(int Vitesse){
 200              		.loc 1 46 0
 201              		.cfi_startproc
 202              		@ args = 0, pretend = 0, frame = 0
 203              		@ frame_needed = 0, uses_anonymous_args = 0
 204              	.LVL25:
 205 0000 10B5     		push	{r4, lr}
 206              		.cfi_def_cfa_offset 8
 207              		.cfi_offset 4, -8
 208              		.cfi_offset 14, -4
 209 0002 0446     		mov	r4, r0
  47:main.c        ****     Wheel_Modes_Write(0x96);
 210              		.loc 1 47 0
 211 0004 9620     		movs	r0, #150
 212              	.LVL26:
 213 0006 FFF7FEFF 		bl	Wheel_Modes_Write
 214              	.LVL27:
  48:main.c        ****     int tempVitD = Vitesse-30;
  49:main.c        ****     int tempVitG = Vitesse;
  50:main.c        ****     if (tempVitD<0){
 215              		.loc 1 50 0
 216 000a B4F11E00 		subs	r0, r4, #30
 217              	.LVL28:
 218 000e 01D5     		bpl	.L12
  51:main.c        ****         tempVitD = 0;
  52:main.c        ****         tempVitG = 30;
 219              		.loc 1 52 0
 220 0010 1E24     		movs	r4, #30
 221              	.LVL29:
  51:main.c        ****         tempVitD = 0;
 222              		.loc 1 51 0
 223 0012 0020     		movs	r0, #0
 224              	.LVL30:
 225              	.L12:
  53:main.c        ****     }
  54:main.c        ****     PWM_all_WriteCompare1(tempVitD);
 226              		.loc 1 54 0
 227 0014 C0B2     		uxtb	r0, r0
 228              	.LVL31:
 229 0016 FFF7FEFF 		bl	PWM_all_WriteCompare1
 230              	.LVL32:
ARM GAS  C:\Users\boutavin\AppData\Local\Temp\ccOs6jKd.s 			page 6


  55:main.c        ****     PWM_all_WriteCompare2(tempVitG);
 231              		.loc 1 55 0
 232 001a E0B2     		uxtb	r0, r4
 233 001c FFF7FEFF 		bl	PWM_all_WriteCompare2
 234              	.LVL33:
 235 0020 10BD     		pop	{r4, pc}
 236              		.cfi_endproc
 237              	.LFE68:
 238              		.size	ForwardRight, .-ForwardRight
 239 0022 00BF     		.section	.text.ForwardLeft,"ax",%progbits
 240              		.align	2
 241              		.global	ForwardLeft
 242              		.thumb
 243              		.thumb_func
 244              		.type	ForwardLeft, %function
 245              	ForwardLeft:
 246              	.LFB69:
  56:main.c        **** }
  57:main.c        **** void ForwardLeft(int Vitesse){
 247              		.loc 1 57 0
 248              		.cfi_startproc
 249              		@ args = 0, pretend = 0, frame = 0
 250              		@ frame_needed = 0, uses_anonymous_args = 0
 251              	.LVL34:
 252 0000 38B5     		push	{r3, r4, r5, lr}
 253              		.cfi_def_cfa_offset 16
 254              		.cfi_offset 3, -16
 255              		.cfi_offset 4, -12
 256              		.cfi_offset 5, -8
 257              		.cfi_offset 14, -4
 258 0002 0446     		mov	r4, r0
  58:main.c        ****     Wheel_Modes_Write(0x96);
 259              		.loc 1 58 0
 260 0004 9620     		movs	r0, #150
 261              	.LVL35:
 262 0006 FFF7FEFF 		bl	Wheel_Modes_Write
 263              	.LVL36:
  59:main.c        ****     int tempVitD = Vitesse;
  60:main.c        ****     int tempVitG = Vitesse-30;
  61:main.c        ****     if (tempVitG<0){
 264              		.loc 1 61 0
 265 000a B4F11E05 		subs	r5, r4, #30
 266              	.LVL37:
 267 000e 01D5     		bpl	.L16
  62:main.c        ****         tempVitG = 0;
 268              		.loc 1 62 0
 269 0010 0025     		movs	r5, #0
 270              	.LVL38:
  63:main.c        ****         tempVitD = 30;
 271              		.loc 1 63 0
 272 0012 1E24     		movs	r4, #30
 273              	.LVL39:
 274              	.L16:
  64:main.c        ****     }
  65:main.c        ****     PWM_all_WriteCompare1(tempVitD);
 275              		.loc 1 65 0
 276 0014 E0B2     		uxtb	r0, r4
ARM GAS  C:\Users\boutavin\AppData\Local\Temp\ccOs6jKd.s 			page 7


 277 0016 FFF7FEFF 		bl	PWM_all_WriteCompare1
 278              	.LVL40:
  66:main.c        ****     PWM_all_WriteCompare2(tempVitG);
 279              		.loc 1 66 0
 280 001a E8B2     		uxtb	r0, r5
 281 001c FFF7FEFF 		bl	PWM_all_WriteCompare2
 282              	.LVL41:
 283 0020 38BD     		pop	{r3, r4, r5, pc}
 284              		.cfi_endproc
 285              	.LFE69:
 286              		.size	ForwardLeft, .-ForwardLeft
 287              		.section	.text.BackwardRight,"ax",%progbits
 288              		.align	2
 289              		.global	BackwardRight
 290              		.thumb
 291              		.thumb_func
 292              		.type	BackwardRight, %function
 293              	BackwardRight:
 294              	.LFB70:
  67:main.c        **** }
  68:main.c        **** void BackwardRight(int Vitesse){
 295              		.loc 1 68 0
 296              		.cfi_startproc
 297              		@ args = 0, pretend = 0, frame = 0
 298              		@ frame_needed = 0, uses_anonymous_args = 0
 299              	.LVL42:
 300 0000 10B5     		push	{r4, lr}
 301              		.cfi_def_cfa_offset 8
 302              		.cfi_offset 4, -8
 303              		.cfi_offset 14, -4
 304 0002 0446     		mov	r4, r0
  69:main.c        ****     Wheel_Modes_Write(0x69);
 305              		.loc 1 69 0
 306 0004 6920     		movs	r0, #105
 307              	.LVL43:
 308 0006 FFF7FEFF 		bl	Wheel_Modes_Write
 309              	.LVL44:
  70:main.c        ****     int tempVitD = Vitesse-30;
  71:main.c        ****     int tempVitG = Vitesse;
  72:main.c        ****     if (tempVitD<0){
 310              		.loc 1 72 0
 311 000a B4F11E00 		subs	r0, r4, #30
 312              	.LVL45:
 313 000e 01D5     		bpl	.L20
  73:main.c        ****         tempVitD = 0;
  74:main.c        ****         tempVitG = 30;
 314              		.loc 1 74 0
 315 0010 1E24     		movs	r4, #30
 316              	.LVL46:
  73:main.c        ****         tempVitD = 0;
 317              		.loc 1 73 0
 318 0012 0020     		movs	r0, #0
 319              	.LVL47:
 320              	.L20:
  75:main.c        ****     }
  76:main.c        ****     PWM_all_WriteCompare1(tempVitD);
 321              		.loc 1 76 0
ARM GAS  C:\Users\boutavin\AppData\Local\Temp\ccOs6jKd.s 			page 8


 322 0014 C0B2     		uxtb	r0, r0
 323              	.LVL48:
 324 0016 FFF7FEFF 		bl	PWM_all_WriteCompare1
 325              	.LVL49:
  77:main.c        ****     PWM_all_WriteCompare2(tempVitG);
 326              		.loc 1 77 0
 327 001a E0B2     		uxtb	r0, r4
 328 001c FFF7FEFF 		bl	PWM_all_WriteCompare2
 329              	.LVL50:
 330 0020 10BD     		pop	{r4, pc}
 331              		.cfi_endproc
 332              	.LFE70:
 333              		.size	BackwardRight, .-BackwardRight
 334 0022 00BF     		.section	.text.BackwardLeft,"ax",%progbits
 335              		.align	2
 336              		.global	BackwardLeft
 337              		.thumb
 338              		.thumb_func
 339              		.type	BackwardLeft, %function
 340              	BackwardLeft:
 341              	.LFB71:
  78:main.c        **** }
  79:main.c        **** void BackwardLeft(int Vitesse){
 342              		.loc 1 79 0
 343              		.cfi_startproc
 344              		@ args = 0, pretend = 0, frame = 0
 345              		@ frame_needed = 0, uses_anonymous_args = 0
 346              	.LVL51:
 347 0000 38B5     		push	{r3, r4, r5, lr}
 348              		.cfi_def_cfa_offset 16
 349              		.cfi_offset 3, -16
 350              		.cfi_offset 4, -12
 351              		.cfi_offset 5, -8
 352              		.cfi_offset 14, -4
 353 0002 0446     		mov	r4, r0
  80:main.c        ****     Wheel_Modes_Write(0x69);
 354              		.loc 1 80 0
 355 0004 6920     		movs	r0, #105
 356              	.LVL52:
 357 0006 FFF7FEFF 		bl	Wheel_Modes_Write
 358              	.LVL53:
  81:main.c        ****     int tempVitD = Vitesse;
  82:main.c        ****     int tempVitG = Vitesse-30;
  83:main.c        ****     if (tempVitG<0){
 359              		.loc 1 83 0
 360 000a B4F11E05 		subs	r5, r4, #30
 361              	.LVL54:
 362 000e 01D5     		bpl	.L24
  84:main.c        ****         tempVitG = 0;
 363              		.loc 1 84 0
 364 0010 0025     		movs	r5, #0
 365              	.LVL55:
  85:main.c        ****         tempVitD = 30;
 366              		.loc 1 85 0
 367 0012 1E24     		movs	r4, #30
 368              	.LVL56:
 369              	.L24:
ARM GAS  C:\Users\boutavin\AppData\Local\Temp\ccOs6jKd.s 			page 9


  86:main.c        ****     }
  87:main.c        ****     PWM_all_WriteCompare1(tempVitD);
 370              		.loc 1 87 0
 371 0014 E0B2     		uxtb	r0, r4
 372 0016 FFF7FEFF 		bl	PWM_all_WriteCompare1
 373              	.LVL57:
  88:main.c        ****     PWM_all_WriteCompare2(tempVitG);
 374              		.loc 1 88 0
 375 001a E8B2     		uxtb	r0, r5
 376 001c FFF7FEFF 		bl	PWM_all_WriteCompare2
 377              	.LVL58:
 378 0020 38BD     		pop	{r3, r4, r5, pc}
 379              		.cfi_endproc
 380              	.LFE71:
 381              		.size	BackwardLeft, .-BackwardLeft
 382              		.section	.text.main,"ax",%progbits
 383              		.align	2
 384              		.global	main
 385              		.thumb
 386              		.thumb_func
 387              		.type	main, %function
 388              	main:
 389              	.LFB72:
  89:main.c        **** }
  90:main.c        **** 
  91:main.c        **** 
  92:main.c        **** int main(void)
  93:main.c        **** {
 390              		.loc 1 93 0
 391              		.cfi_startproc
 392              		@ args = 0, pretend = 0, frame = 0
 393              		@ frame_needed = 0, uses_anonymous_args = 0
 394 0000 08B5     		push	{r3, lr}
 395              		.cfi_def_cfa_offset 8
 396              		.cfi_offset 3, -8
 397              		.cfi_offset 14, -4
  94:main.c        ****     CyGlobalIntEnable; /* Enable global interrupts. */
 398              		.loc 1 94 0
 399              		.syntax unified
 400              	@ 94 "main.c" 1
 401 0002 62B6     		CPSIE   i
 402              	@ 0 "" 2
  95:main.c        ****     
  96:main.c        ****     /*Place the init code */
  97:main.c        ****     PWM_all_Start();
 403              		.loc 1 97 0
 404              		.thumb
 405              		.syntax unified
 406 0004 FFF7FEFF 		bl	PWM_all_Start
 407              	.LVL59:
  98:main.c        ****     ADC_Pot_Start();
 408              		.loc 1 98 0
 409 0008 FFF7FEFF 		bl	ADC_Pot_Start
 410              	.LVL60:
  99:main.c        ****     ADC_Pot_StartConvert();
 411              		.loc 1 99 0
 412 000c FFF7FEFF 		bl	ADC_Pot_StartConvert
ARM GAS  C:\Users\boutavin\AppData\Local\Temp\ccOs6jKd.s 			page 10


 413              	.LVL61:
 100:main.c        ****     StopWheels();
 414              		.loc 1 100 0
 415 0010 FFF7FEFF 		bl	StopWheels
 416              	.LVL62:
 417              	.L28:
 101:main.c        ****     int vitesse = 100;
 102:main.c        ****     for(;;)
 103:main.c        ****     {
 104:main.c        ****         /* Place your application code here. */
 105:main.c        ****         //vitesse = ADC_Pot_GetResult8();
 106:main.c        ****         Forward(vitesse);
 418              		.loc 1 106 0 discriminator 1
 419 0014 6420     		movs	r0, #100
 420 0016 FFF7FEFF 		bl	Forward
 421              	.LVL63:
 422 001a FBE7     		b	.L28
 423              		.cfi_endproc
 424              	.LFE72:
 425              		.size	main, .-main
 426              		.text
 427              	.Letext0:
 428              		.file 2 "c:\\program files (x86)\\cypress\\psoc creator\\4.4\\psoc creator\\import\\gnu\\arm\\5.4.
 429              		.file 3 "c:\\program files (x86)\\cypress\\psoc creator\\4.4\\psoc creator\\import\\gnu\\arm\\5.4.
 430              		.file 4 "Generated_Source\\PSoC5/Wheel_Modes.h"
 431              		.file 5 "Generated_Source\\PSoC5/PWM_all.h"
 432              		.file 6 "Generated_Source\\PSoC5/ADC_Pot.h"
 433              		.file 7 "Generated_Source\\PSoC5/core_cm3.h"