ARM GAS  C:\Users\LESPIA~1\AppData\Local\Temp\ccbZmrjD.s 			page 1


   1              		.syntax unified
   2              		.cpu cortex-m3
   3              		.fpu softvfp
   4              		.eabi_attribute 20, 1
   5              		.eabi_attribute 21, 1
   6              		.eabi_attribute 23, 3
   7              		.eabi_attribute 24, 1
   8              		.eabi_attribute 25, 1
   9              		.eabi_attribute 26, 1
  10              		.eabi_attribute 30, 1
  11              		.eabi_attribute 34, 1
  12              		.eabi_attribute 18, 4
  13              		.thumb
  14              		.syntax unified
  15              		.file	"Interruption_CMD.c"
  16              		.text
  17              	.Ltext0:
  18              		.cfi_sections	.debug_frame
  19              		.section	.text.Interruption_CMD_Interrupt,"ax",%progbits
  20              		.align	2
  21              		.global	Interruption_CMD_Interrupt
  22              		.thumb
  23              		.thumb_func
  24              		.type	Interruption_CMD_Interrupt, %function
  25              	Interruption_CMD_Interrupt:
  26              	.LFB66:
  27              		.file 1 "Generated_Source\\PSoC5\\Interruption_CMD.c"
   1:Generated_Source\PSoC5/Interruption_CMD.c **** /*******************************************************************************
   2:Generated_Source\PSoC5/Interruption_CMD.c **** * File Name: Interruption_CMD.c  
   3:Generated_Source\PSoC5/Interruption_CMD.c **** * Version 1.70
   4:Generated_Source\PSoC5/Interruption_CMD.c **** *
   5:Generated_Source\PSoC5/Interruption_CMD.c **** *  Description:
   6:Generated_Source\PSoC5/Interruption_CMD.c **** *   API for controlling the state of an interrupt.
   7:Generated_Source\PSoC5/Interruption_CMD.c **** *
   8:Generated_Source\PSoC5/Interruption_CMD.c **** *
   9:Generated_Source\PSoC5/Interruption_CMD.c **** *  Note:
  10:Generated_Source\PSoC5/Interruption_CMD.c **** *
  11:Generated_Source\PSoC5/Interruption_CMD.c **** ********************************************************************************
  12:Generated_Source\PSoC5/Interruption_CMD.c **** * Copyright 2008-2015, Cypress Semiconductor Corporation.  All rights reserved.
  13:Generated_Source\PSoC5/Interruption_CMD.c **** * You may use this file only in accordance with the license, terms, conditions, 
  14:Generated_Source\PSoC5/Interruption_CMD.c **** * disclaimers, and limitations in the end user license agreement accompanying 
  15:Generated_Source\PSoC5/Interruption_CMD.c **** * the software package with which this file was provided.
  16:Generated_Source\PSoC5/Interruption_CMD.c **** *******************************************************************************/
  17:Generated_Source\PSoC5/Interruption_CMD.c **** 
  18:Generated_Source\PSoC5/Interruption_CMD.c **** 
  19:Generated_Source\PSoC5/Interruption_CMD.c **** #include <cydevice_trm.h>
  20:Generated_Source\PSoC5/Interruption_CMD.c **** #include <CyLib.h>
  21:Generated_Source\PSoC5/Interruption_CMD.c **** #include <Interruption_CMD.h>
  22:Generated_Source\PSoC5/Interruption_CMD.c **** #include "cyapicallbacks.h"
  23:Generated_Source\PSoC5/Interruption_CMD.c **** 
  24:Generated_Source\PSoC5/Interruption_CMD.c **** #if !defined(Interruption_CMD__REMOVED) /* Check for removal by optimization */
  25:Generated_Source\PSoC5/Interruption_CMD.c **** 
  26:Generated_Source\PSoC5/Interruption_CMD.c **** /*******************************************************************************
  27:Generated_Source\PSoC5/Interruption_CMD.c **** *  Place your includes, defines and code here 
  28:Generated_Source\PSoC5/Interruption_CMD.c **** ********************************************************************************/
  29:Generated_Source\PSoC5/Interruption_CMD.c **** /* `#START Interruption_CMD_intc` */
  30:Generated_Source\PSoC5/Interruption_CMD.c ****     
ARM GAS  C:\Users\LESPIA~1\AppData\Local\Temp\ccbZmrjD.s 			page 2


  31:Generated_Source\PSoC5/Interruption_CMD.c **** #include "utilities.h"
  32:Generated_Source\PSoC5/Interruption_CMD.c **** 
  33:Generated_Source\PSoC5/Interruption_CMD.c **** /* `#END` */
  34:Generated_Source\PSoC5/Interruption_CMD.c **** 
  35:Generated_Source\PSoC5/Interruption_CMD.c **** #ifndef CYINT_IRQ_BASE
  36:Generated_Source\PSoC5/Interruption_CMD.c **** #define CYINT_IRQ_BASE      16
  37:Generated_Source\PSoC5/Interruption_CMD.c **** #endif /* CYINT_IRQ_BASE */
  38:Generated_Source\PSoC5/Interruption_CMD.c **** #ifndef CYINT_VECT_TABLE
  39:Generated_Source\PSoC5/Interruption_CMD.c **** #define CYINT_VECT_TABLE    ((cyisraddress **) CYREG_NVIC_VECT_OFFSET)
  40:Generated_Source\PSoC5/Interruption_CMD.c **** #endif /* CYINT_VECT_TABLE */
  41:Generated_Source\PSoC5/Interruption_CMD.c **** 
  42:Generated_Source\PSoC5/Interruption_CMD.c **** /* Declared in startup, used to set unused interrupts to. */
  43:Generated_Source\PSoC5/Interruption_CMD.c **** CY_ISR_PROTO(IntDefaultHandler);
  44:Generated_Source\PSoC5/Interruption_CMD.c **** 
  45:Generated_Source\PSoC5/Interruption_CMD.c **** 
  46:Generated_Source\PSoC5/Interruption_CMD.c **** /*******************************************************************************
  47:Generated_Source\PSoC5/Interruption_CMD.c **** * Function Name: Interruption_CMD_Start
  48:Generated_Source\PSoC5/Interruption_CMD.c **** ********************************************************************************
  49:Generated_Source\PSoC5/Interruption_CMD.c **** *
  50:Generated_Source\PSoC5/Interruption_CMD.c **** * Summary:
  51:Generated_Source\PSoC5/Interruption_CMD.c **** *  Set up the interrupt and enable it. This function disables the interrupt, 
  52:Generated_Source\PSoC5/Interruption_CMD.c **** *  sets the default interrupt vector, sets the priority from the value in the
  53:Generated_Source\PSoC5/Interruption_CMD.c **** *  Design Wide Resources Interrupt Editor, then enables the interrupt to the 
  54:Generated_Source\PSoC5/Interruption_CMD.c **** *  interrupt controller.
  55:Generated_Source\PSoC5/Interruption_CMD.c **** *
  56:Generated_Source\PSoC5/Interruption_CMD.c **** * Parameters:  
  57:Generated_Source\PSoC5/Interruption_CMD.c **** *   None
  58:Generated_Source\PSoC5/Interruption_CMD.c **** *
  59:Generated_Source\PSoC5/Interruption_CMD.c **** * Return:
  60:Generated_Source\PSoC5/Interruption_CMD.c **** *   None
  61:Generated_Source\PSoC5/Interruption_CMD.c **** *
  62:Generated_Source\PSoC5/Interruption_CMD.c **** *******************************************************************************/
  63:Generated_Source\PSoC5/Interruption_CMD.c **** void Interruption_CMD_Start(void)
  64:Generated_Source\PSoC5/Interruption_CMD.c **** {
  65:Generated_Source\PSoC5/Interruption_CMD.c ****     /* For all we know the interrupt is active. */
  66:Generated_Source\PSoC5/Interruption_CMD.c ****     Interruption_CMD_Disable();
  67:Generated_Source\PSoC5/Interruption_CMD.c **** 
  68:Generated_Source\PSoC5/Interruption_CMD.c ****     /* Set the ISR to point to the Interruption_CMD Interrupt. */
  69:Generated_Source\PSoC5/Interruption_CMD.c ****     Interruption_CMD_SetVector(&Interruption_CMD_Interrupt);
  70:Generated_Source\PSoC5/Interruption_CMD.c **** 
  71:Generated_Source\PSoC5/Interruption_CMD.c ****     /* Set the priority. */
  72:Generated_Source\PSoC5/Interruption_CMD.c ****     Interruption_CMD_SetPriority((uint8)Interruption_CMD_INTC_PRIOR_NUMBER);
  73:Generated_Source\PSoC5/Interruption_CMD.c **** 
  74:Generated_Source\PSoC5/Interruption_CMD.c ****     /* Enable it. */
  75:Generated_Source\PSoC5/Interruption_CMD.c ****     Interruption_CMD_Enable();
  76:Generated_Source\PSoC5/Interruption_CMD.c **** }
  77:Generated_Source\PSoC5/Interruption_CMD.c **** 
  78:Generated_Source\PSoC5/Interruption_CMD.c **** 
  79:Generated_Source\PSoC5/Interruption_CMD.c **** /*******************************************************************************
  80:Generated_Source\PSoC5/Interruption_CMD.c **** * Function Name: Interruption_CMD_StartEx
  81:Generated_Source\PSoC5/Interruption_CMD.c **** ********************************************************************************
  82:Generated_Source\PSoC5/Interruption_CMD.c **** *
  83:Generated_Source\PSoC5/Interruption_CMD.c **** * Summary:
  84:Generated_Source\PSoC5/Interruption_CMD.c **** *  Sets up the interrupt and enables it. This function disables the interrupt,
  85:Generated_Source\PSoC5/Interruption_CMD.c **** *  sets the interrupt vector based on the address passed in, sets the priority 
  86:Generated_Source\PSoC5/Interruption_CMD.c **** *  from the value in the Design Wide Resources Interrupt Editor, then enables 
  87:Generated_Source\PSoC5/Interruption_CMD.c **** *  the interrupt to the interrupt controller.
ARM GAS  C:\Users\LESPIA~1\AppData\Local\Temp\ccbZmrjD.s 			page 3


  88:Generated_Source\PSoC5/Interruption_CMD.c **** *  
  89:Generated_Source\PSoC5/Interruption_CMD.c **** *  When defining ISR functions, the CY_ISR and CY_ISR_PROTO macros should be 
  90:Generated_Source\PSoC5/Interruption_CMD.c **** *  used to provide consistent definition across compilers:
  91:Generated_Source\PSoC5/Interruption_CMD.c **** *  
  92:Generated_Source\PSoC5/Interruption_CMD.c **** *  Function definition example:
  93:Generated_Source\PSoC5/Interruption_CMD.c **** *   CY_ISR(MyISR)
  94:Generated_Source\PSoC5/Interruption_CMD.c **** *   {
  95:Generated_Source\PSoC5/Interruption_CMD.c **** *   }
  96:Generated_Source\PSoC5/Interruption_CMD.c **** *   Function prototype example:
  97:Generated_Source\PSoC5/Interruption_CMD.c **** *   CY_ISR_PROTO(MyISR);
  98:Generated_Source\PSoC5/Interruption_CMD.c **** *
  99:Generated_Source\PSoC5/Interruption_CMD.c **** * Parameters:  
 100:Generated_Source\PSoC5/Interruption_CMD.c **** *   address: Address of the ISR to set in the interrupt vector table.
 101:Generated_Source\PSoC5/Interruption_CMD.c **** *
 102:Generated_Source\PSoC5/Interruption_CMD.c **** * Return:
 103:Generated_Source\PSoC5/Interruption_CMD.c **** *   None
 104:Generated_Source\PSoC5/Interruption_CMD.c **** *
 105:Generated_Source\PSoC5/Interruption_CMD.c **** *******************************************************************************/
 106:Generated_Source\PSoC5/Interruption_CMD.c **** void Interruption_CMD_StartEx(cyisraddress address)
 107:Generated_Source\PSoC5/Interruption_CMD.c **** {
 108:Generated_Source\PSoC5/Interruption_CMD.c ****     /* For all we know the interrupt is active. */
 109:Generated_Source\PSoC5/Interruption_CMD.c ****     Interruption_CMD_Disable();
 110:Generated_Source\PSoC5/Interruption_CMD.c **** 
 111:Generated_Source\PSoC5/Interruption_CMD.c ****     /* Set the ISR to point to the Interruption_CMD Interrupt. */
 112:Generated_Source\PSoC5/Interruption_CMD.c ****     Interruption_CMD_SetVector(address);
 113:Generated_Source\PSoC5/Interruption_CMD.c **** 
 114:Generated_Source\PSoC5/Interruption_CMD.c ****     /* Set the priority. */
 115:Generated_Source\PSoC5/Interruption_CMD.c ****     Interruption_CMD_SetPriority((uint8)Interruption_CMD_INTC_PRIOR_NUMBER);
 116:Generated_Source\PSoC5/Interruption_CMD.c **** 
 117:Generated_Source\PSoC5/Interruption_CMD.c ****     /* Enable it. */
 118:Generated_Source\PSoC5/Interruption_CMD.c ****     Interruption_CMD_Enable();
 119:Generated_Source\PSoC5/Interruption_CMD.c **** }
 120:Generated_Source\PSoC5/Interruption_CMD.c **** 
 121:Generated_Source\PSoC5/Interruption_CMD.c **** 
 122:Generated_Source\PSoC5/Interruption_CMD.c **** /*******************************************************************************
 123:Generated_Source\PSoC5/Interruption_CMD.c **** * Function Name: Interruption_CMD_Stop
 124:Generated_Source\PSoC5/Interruption_CMD.c **** ********************************************************************************
 125:Generated_Source\PSoC5/Interruption_CMD.c **** *
 126:Generated_Source\PSoC5/Interruption_CMD.c **** * Summary:
 127:Generated_Source\PSoC5/Interruption_CMD.c **** *   Disables and removes the interrupt.
 128:Generated_Source\PSoC5/Interruption_CMD.c **** *
 129:Generated_Source\PSoC5/Interruption_CMD.c **** * Parameters:  
 130:Generated_Source\PSoC5/Interruption_CMD.c **** *   None
 131:Generated_Source\PSoC5/Interruption_CMD.c **** *
 132:Generated_Source\PSoC5/Interruption_CMD.c **** * Return:
 133:Generated_Source\PSoC5/Interruption_CMD.c **** *   None
 134:Generated_Source\PSoC5/Interruption_CMD.c **** *
 135:Generated_Source\PSoC5/Interruption_CMD.c **** *******************************************************************************/
 136:Generated_Source\PSoC5/Interruption_CMD.c **** void Interruption_CMD_Stop(void)
 137:Generated_Source\PSoC5/Interruption_CMD.c **** {
 138:Generated_Source\PSoC5/Interruption_CMD.c ****     /* Disable this interrupt. */
 139:Generated_Source\PSoC5/Interruption_CMD.c ****     Interruption_CMD_Disable();
 140:Generated_Source\PSoC5/Interruption_CMD.c **** 
 141:Generated_Source\PSoC5/Interruption_CMD.c ****     /* Set the ISR to point to the passive one. */
 142:Generated_Source\PSoC5/Interruption_CMD.c ****     Interruption_CMD_SetVector(&IntDefaultHandler);
 143:Generated_Source\PSoC5/Interruption_CMD.c **** }
 144:Generated_Source\PSoC5/Interruption_CMD.c **** 
ARM GAS  C:\Users\LESPIA~1\AppData\Local\Temp\ccbZmrjD.s 			page 4


 145:Generated_Source\PSoC5/Interruption_CMD.c **** 
 146:Generated_Source\PSoC5/Interruption_CMD.c **** /*******************************************************************************
 147:Generated_Source\PSoC5/Interruption_CMD.c **** * Function Name: Interruption_CMD_Interrupt
 148:Generated_Source\PSoC5/Interruption_CMD.c **** ********************************************************************************
 149:Generated_Source\PSoC5/Interruption_CMD.c **** *
 150:Generated_Source\PSoC5/Interruption_CMD.c **** * Summary:
 151:Generated_Source\PSoC5/Interruption_CMD.c **** *   The default Interrupt Service Routine for Interruption_CMD.
 152:Generated_Source\PSoC5/Interruption_CMD.c **** *
 153:Generated_Source\PSoC5/Interruption_CMD.c **** *   Add custom code between the coments to keep the next version of this file
 154:Generated_Source\PSoC5/Interruption_CMD.c **** *   from over writting your code.
 155:Generated_Source\PSoC5/Interruption_CMD.c **** *
 156:Generated_Source\PSoC5/Interruption_CMD.c **** * Parameters:  
 157:Generated_Source\PSoC5/Interruption_CMD.c **** *
 158:Generated_Source\PSoC5/Interruption_CMD.c **** * Return:
 159:Generated_Source\PSoC5/Interruption_CMD.c **** *   None
 160:Generated_Source\PSoC5/Interruption_CMD.c **** *
 161:Generated_Source\PSoC5/Interruption_CMD.c **** *******************************************************************************/
 162:Generated_Source\PSoC5/Interruption_CMD.c **** CY_ISR(Interruption_CMD_Interrupt)
 163:Generated_Source\PSoC5/Interruption_CMD.c **** {
  28              		.loc 1 163 0
  29              		.cfi_startproc
  30              		@ args = 0, pretend = 0, frame = 0
  31              		@ frame_needed = 0, uses_anonymous_args = 0
  32 0000 08B5     		push	{r3, lr}
  33              		.cfi_def_cfa_offset 8
  34              		.cfi_offset 3, -8
  35              		.cfi_offset 14, -4
  36              	.LVL0:
 164:Generated_Source\PSoC5/Interruption_CMD.c ****     #ifdef Interruption_CMD_INTERRUPT_INTERRUPT_CALLBACK
 165:Generated_Source\PSoC5/Interruption_CMD.c ****         Interruption_CMD_Interrupt_InterruptCallback();
 166:Generated_Source\PSoC5/Interruption_CMD.c ****     #endif /* Interruption_CMD_INTERRUPT_INTERRUPT_CALLBACK */ 
 167:Generated_Source\PSoC5/Interruption_CMD.c **** 
 168:Generated_Source\PSoC5/Interruption_CMD.c ****     /*  Place your Interrupt code here. */
 169:Generated_Source\PSoC5/Interruption_CMD.c ****     /* `#START Interruption_CMD_Interrupt` */
 170:Generated_Source\PSoC5/Interruption_CMD.c **** 
 171:Generated_Source\PSoC5/Interruption_CMD.c ****     const int vitesse = 75;
 172:Generated_Source\PSoC5/Interruption_CMD.c ****     char ch;
 173:Generated_Source\PSoC5/Interruption_CMD.c ****     
 174:Generated_Source\PSoC5/Interruption_CMD.c ****     ch = UART_test_GetChar();
  37              		.loc 1 174 0
  38 0002 FFF7FEFF 		bl	UART_test_GetChar
  39              	.LVL1:
 175:Generated_Source\PSoC5/Interruption_CMD.c ****             
 176:Generated_Source\PSoC5/Interruption_CMD.c ****         if(ch == DROITE)
  40              		.loc 1 176 0
  41 0006 6428     		cmp	r0, #100
  42 0008 06D1     		bne	.L2
 177:Generated_Source\PSoC5/Interruption_CMD.c ****         {
 178:Generated_Source\PSoC5/Interruption_CMD.c ****             Spin_Right(vitesse);
  43              		.loc 1 178 0
  44 000a 4B20     		movs	r0, #75
  45              	.LVL2:
  46 000c FFF7FEFF 		bl	Spin_Right
  47              	.LVL3:
 179:Generated_Source\PSoC5/Interruption_CMD.c ****             UART_test_WriteTxData(1);
  48              		.loc 1 179 0
  49 0010 0120     		movs	r0, #1
ARM GAS  C:\Users\LESPIA~1\AppData\Local\Temp\ccbZmrjD.s 			page 5


  50 0012 FFF7FEFF 		bl	UART_test_WriteTxData
  51              	.LVL4:
  52 0016 08BD     		pop	{r3, pc}
  53              	.LVL5:
  54              	.L2:
 180:Generated_Source\PSoC5/Interruption_CMD.c ****             ch = 0;
 181:Generated_Source\PSoC5/Interruption_CMD.c ****         }
 182:Generated_Source\PSoC5/Interruption_CMD.c ****         else if(ch == GAUCHE)
  55              		.loc 1 182 0
  56 0018 7128     		cmp	r0, #113
  57 001a 06D1     		bne	.L4
 183:Generated_Source\PSoC5/Interruption_CMD.c ****         {
 184:Generated_Source\PSoC5/Interruption_CMD.c ****             Spin_Left(vitesse);
  58              		.loc 1 184 0
  59 001c 4B20     		movs	r0, #75
  60              	.LVL6:
  61 001e FFF7FEFF 		bl	Spin_Left
  62              	.LVL7:
 185:Generated_Source\PSoC5/Interruption_CMD.c ****             UART_test_WriteTxData(2);
  63              		.loc 1 185 0
  64 0022 0220     		movs	r0, #2
  65 0024 FFF7FEFF 		bl	UART_test_WriteTxData
  66              	.LVL8:
  67 0028 08BD     		pop	{r3, pc}
  68              	.LVL9:
  69              	.L4:
 186:Generated_Source\PSoC5/Interruption_CMD.c ****             ch = 0;
 187:Generated_Source\PSoC5/Interruption_CMD.c ****         }
 188:Generated_Source\PSoC5/Interruption_CMD.c ****         else if(ch == HAUT)
  70              		.loc 1 188 0
  71 002a 7A28     		cmp	r0, #122
  72 002c 06D1     		bne	.L5
 189:Generated_Source\PSoC5/Interruption_CMD.c ****         {
 190:Generated_Source\PSoC5/Interruption_CMD.c ****             Forward(vitesse);
  73              		.loc 1 190 0
  74 002e 4B20     		movs	r0, #75
  75              	.LVL10:
  76 0030 FFF7FEFF 		bl	Forward
  77              	.LVL11:
 191:Generated_Source\PSoC5/Interruption_CMD.c ****             UART_test_WriteTxData(3);
  78              		.loc 1 191 0
  79 0034 0320     		movs	r0, #3
  80 0036 FFF7FEFF 		bl	UART_test_WriteTxData
  81              	.LVL12:
  82 003a 08BD     		pop	{r3, pc}
  83              	.LVL13:
  84              	.L5:
 192:Generated_Source\PSoC5/Interruption_CMD.c ****             ch = 0;
 193:Generated_Source\PSoC5/Interruption_CMD.c ****         }
 194:Generated_Source\PSoC5/Interruption_CMD.c ****         else if(ch == BAS)
  85              		.loc 1 194 0
  86 003c 7328     		cmp	r0, #115
  87 003e 06D1     		bne	.L6
 195:Generated_Source\PSoC5/Interruption_CMD.c ****         {
 196:Generated_Source\PSoC5/Interruption_CMD.c ****             Backward(vitesse);
  88              		.loc 1 196 0
  89 0040 4B20     		movs	r0, #75
ARM GAS  C:\Users\LESPIA~1\AppData\Local\Temp\ccbZmrjD.s 			page 6


  90              	.LVL14:
  91 0042 FFF7FEFF 		bl	Backward
  92              	.LVL15:
 197:Generated_Source\PSoC5/Interruption_CMD.c ****             UART_test_WriteTxData(4);
  93              		.loc 1 197 0
  94 0046 0420     		movs	r0, #4
  95 0048 FFF7FEFF 		bl	UART_test_WriteTxData
  96              	.LVL16:
  97 004c 08BD     		pop	{r3, pc}
  98              	.LVL17:
  99              	.L6:
 198:Generated_Source\PSoC5/Interruption_CMD.c ****             ch = 0;
 199:Generated_Source\PSoC5/Interruption_CMD.c ****         }
 200:Generated_Source\PSoC5/Interruption_CMD.c ****         else if(ch == ACCELERATION_EXPLOSIVE)
 100              		.loc 1 200 0
 101 004e 2028     		cmp	r0, #32
 102 0050 03D1     		bne	.L7
 201:Generated_Source\PSoC5/Interruption_CMD.c ****         {
 202:Generated_Source\PSoC5/Interruption_CMD.c ****             UART_test_WriteTxData(5);
 103              		.loc 1 202 0
 104 0052 0520     		movs	r0, #5
 105              	.LVL18:
 106 0054 FFF7FEFF 		bl	UART_test_WriteTxData
 107              	.LVL19:
 108 0058 08BD     		pop	{r3, pc}
 109              	.LVL20:
 110              	.L7:
 203:Generated_Source\PSoC5/Interruption_CMD.c ****             ch = 0;
 204:Generated_Source\PSoC5/Interruption_CMD.c ****         }
 205:Generated_Source\PSoC5/Interruption_CMD.c ****         else if (ch == '0')
 111              		.loc 1 205 0
 112 005a 3028     		cmp	r0, #48
 113 005c 01D1     		bne	.L1
 206:Generated_Source\PSoC5/Interruption_CMD.c ****         {
 207:Generated_Source\PSoC5/Interruption_CMD.c ****            StopWheels(); 
 114              		.loc 1 207 0
 115 005e FFF7FEFF 		bl	StopWheels
 116              	.LVL21:
 117              	.L1:
 118 0062 08BD     		pop	{r3, pc}
 119              		.cfi_endproc
 120              	.LFE66:
 121              		.size	Interruption_CMD_Interrupt, .-Interruption_CMD_Interrupt
 122              		.section	.text.Interruption_CMD_SetVector,"ax",%progbits
 123              		.align	2
 124              		.global	Interruption_CMD_SetVector
 125              		.thumb
 126              		.thumb_func
 127              		.type	Interruption_CMD_SetVector, %function
 128              	Interruption_CMD_SetVector:
 129              	.LFB67:
 208:Generated_Source\PSoC5/Interruption_CMD.c ****         }
 209:Generated_Source\PSoC5/Interruption_CMD.c ****     /* `#END` */
 210:Generated_Source\PSoC5/Interruption_CMD.c **** }
 211:Generated_Source\PSoC5/Interruption_CMD.c **** 
 212:Generated_Source\PSoC5/Interruption_CMD.c **** 
 213:Generated_Source\PSoC5/Interruption_CMD.c **** /*******************************************************************************
ARM GAS  C:\Users\LESPIA~1\AppData\Local\Temp\ccbZmrjD.s 			page 7


 214:Generated_Source\PSoC5/Interruption_CMD.c **** * Function Name: Interruption_CMD_SetVector
 215:Generated_Source\PSoC5/Interruption_CMD.c **** ********************************************************************************
 216:Generated_Source\PSoC5/Interruption_CMD.c **** *
 217:Generated_Source\PSoC5/Interruption_CMD.c **** * Summary:
 218:Generated_Source\PSoC5/Interruption_CMD.c **** *   Change the ISR vector for the Interrupt. Note calling Interruption_CMD_Start
 219:Generated_Source\PSoC5/Interruption_CMD.c **** *   will override any effect this method would have had. To set the vector 
 220:Generated_Source\PSoC5/Interruption_CMD.c **** *   before the component has been started use Interruption_CMD_StartEx instead.
 221:Generated_Source\PSoC5/Interruption_CMD.c **** * 
 222:Generated_Source\PSoC5/Interruption_CMD.c **** *   When defining ISR functions, the CY_ISR and CY_ISR_PROTO macros should be 
 223:Generated_Source\PSoC5/Interruption_CMD.c **** *   used to provide consistent definition across compilers:
 224:Generated_Source\PSoC5/Interruption_CMD.c **** *
 225:Generated_Source\PSoC5/Interruption_CMD.c **** *   Function definition example:
 226:Generated_Source\PSoC5/Interruption_CMD.c **** *   CY_ISR(MyISR)
 227:Generated_Source\PSoC5/Interruption_CMD.c **** *   {
 228:Generated_Source\PSoC5/Interruption_CMD.c **** *   }
 229:Generated_Source\PSoC5/Interruption_CMD.c **** *
 230:Generated_Source\PSoC5/Interruption_CMD.c **** *   Function prototype example:
 231:Generated_Source\PSoC5/Interruption_CMD.c **** *     CY_ISR_PROTO(MyISR);
 232:Generated_Source\PSoC5/Interruption_CMD.c **** *
 233:Generated_Source\PSoC5/Interruption_CMD.c **** * Parameters:
 234:Generated_Source\PSoC5/Interruption_CMD.c **** *   address: Address of the ISR to set in the interrupt vector table.
 235:Generated_Source\PSoC5/Interruption_CMD.c **** *
 236:Generated_Source\PSoC5/Interruption_CMD.c **** * Return:
 237:Generated_Source\PSoC5/Interruption_CMD.c **** *   None
 238:Generated_Source\PSoC5/Interruption_CMD.c **** *
 239:Generated_Source\PSoC5/Interruption_CMD.c **** *******************************************************************************/
 240:Generated_Source\PSoC5/Interruption_CMD.c **** void Interruption_CMD_SetVector(cyisraddress address)
 241:Generated_Source\PSoC5/Interruption_CMD.c **** {
 130              		.loc 1 241 0
 131              		.cfi_startproc
 132              		@ args = 0, pretend = 0, frame = 0
 133              		@ frame_needed = 0, uses_anonymous_args = 0
 134              		@ link register save eliminated.
 135              	.LVL22:
 242:Generated_Source\PSoC5/Interruption_CMD.c ****     cyisraddress * ramVectorTable;
 243:Generated_Source\PSoC5/Interruption_CMD.c **** 
 244:Generated_Source\PSoC5/Interruption_CMD.c ****     ramVectorTable = (cyisraddress *) *CYINT_VECT_TABLE;
 136              		.loc 1 244 0
 137 0000 014B     		ldr	r3, .L10
 138 0002 1B68     		ldr	r3, [r3]
 139              	.LVL23:
 245:Generated_Source\PSoC5/Interruption_CMD.c **** 
 246:Generated_Source\PSoC5/Interruption_CMD.c ****     ramVectorTable[CYINT_IRQ_BASE + (uint32)Interruption_CMD__INTC_NUMBER] = address;
 140              		.loc 1 246 0
 141 0004 1864     		str	r0, [r3, #64]
 142 0006 7047     		bx	lr
 143              	.L11:
 144              		.align	2
 145              	.L10:
 146 0008 08ED00E0 		.word	-536810232
 147              		.cfi_endproc
 148              	.LFE67:
 149              		.size	Interruption_CMD_SetVector, .-Interruption_CMD_SetVector
 150              		.section	.text.Interruption_CMD_GetVector,"ax",%progbits
 151              		.align	2
 152              		.global	Interruption_CMD_GetVector
 153              		.thumb
ARM GAS  C:\Users\LESPIA~1\AppData\Local\Temp\ccbZmrjD.s 			page 8


 154              		.thumb_func
 155              		.type	Interruption_CMD_GetVector, %function
 156              	Interruption_CMD_GetVector:
 157              	.LFB68:
 247:Generated_Source\PSoC5/Interruption_CMD.c **** }
 248:Generated_Source\PSoC5/Interruption_CMD.c **** 
 249:Generated_Source\PSoC5/Interruption_CMD.c **** 
 250:Generated_Source\PSoC5/Interruption_CMD.c **** /*******************************************************************************
 251:Generated_Source\PSoC5/Interruption_CMD.c **** * Function Name: Interruption_CMD_GetVector
 252:Generated_Source\PSoC5/Interruption_CMD.c **** ********************************************************************************
 253:Generated_Source\PSoC5/Interruption_CMD.c **** *
 254:Generated_Source\PSoC5/Interruption_CMD.c **** * Summary:
 255:Generated_Source\PSoC5/Interruption_CMD.c **** *   Gets the "address" of the current ISR vector for the Interrupt.
 256:Generated_Source\PSoC5/Interruption_CMD.c **** *
 257:Generated_Source\PSoC5/Interruption_CMD.c **** * Parameters:
 258:Generated_Source\PSoC5/Interruption_CMD.c **** *   None
 259:Generated_Source\PSoC5/Interruption_CMD.c **** *
 260:Generated_Source\PSoC5/Interruption_CMD.c **** * Return:
 261:Generated_Source\PSoC5/Interruption_CMD.c **** *   Address of the ISR in the interrupt vector table.
 262:Generated_Source\PSoC5/Interruption_CMD.c **** *
 263:Generated_Source\PSoC5/Interruption_CMD.c **** *******************************************************************************/
 264:Generated_Source\PSoC5/Interruption_CMD.c **** cyisraddress Interruption_CMD_GetVector(void)
 265:Generated_Source\PSoC5/Interruption_CMD.c **** {
 158              		.loc 1 265 0
 159              		.cfi_startproc
 160              		@ args = 0, pretend = 0, frame = 0
 161              		@ frame_needed = 0, uses_anonymous_args = 0
 162              		@ link register save eliminated.
 266:Generated_Source\PSoC5/Interruption_CMD.c ****     cyisraddress * ramVectorTable;
 267:Generated_Source\PSoC5/Interruption_CMD.c **** 
 268:Generated_Source\PSoC5/Interruption_CMD.c ****     ramVectorTable = (cyisraddress *) *CYINT_VECT_TABLE;
 163              		.loc 1 268 0
 164 0000 014B     		ldr	r3, .L13
 165 0002 1B68     		ldr	r3, [r3]
 166              	.LVL24:
 269:Generated_Source\PSoC5/Interruption_CMD.c **** 
 270:Generated_Source\PSoC5/Interruption_CMD.c ****     return ramVectorTable[CYINT_IRQ_BASE + (uint32)Interruption_CMD__INTC_NUMBER];
 271:Generated_Source\PSoC5/Interruption_CMD.c **** }
 167              		.loc 1 271 0
 168 0004 186C     		ldr	r0, [r3, #64]
 169 0006 7047     		bx	lr
 170              	.L14:
 171              		.align	2
 172              	.L13:
 173 0008 08ED00E0 		.word	-536810232
 174              		.cfi_endproc
 175              	.LFE68:
 176              		.size	Interruption_CMD_GetVector, .-Interruption_CMD_GetVector
 177              		.section	.text.Interruption_CMD_SetPriority,"ax",%progbits
 178              		.align	2
 179              		.global	Interruption_CMD_SetPriority
 180              		.thumb
 181              		.thumb_func
 182              		.type	Interruption_CMD_SetPriority, %function
 183              	Interruption_CMD_SetPriority:
 184              	.LFB69:
 272:Generated_Source\PSoC5/Interruption_CMD.c **** 
ARM GAS  C:\Users\LESPIA~1\AppData\Local\Temp\ccbZmrjD.s 			page 9


 273:Generated_Source\PSoC5/Interruption_CMD.c **** 
 274:Generated_Source\PSoC5/Interruption_CMD.c **** /*******************************************************************************
 275:Generated_Source\PSoC5/Interruption_CMD.c **** * Function Name: Interruption_CMD_SetPriority
 276:Generated_Source\PSoC5/Interruption_CMD.c **** ********************************************************************************
 277:Generated_Source\PSoC5/Interruption_CMD.c **** *
 278:Generated_Source\PSoC5/Interruption_CMD.c **** * Summary:
 279:Generated_Source\PSoC5/Interruption_CMD.c **** *   Sets the Priority of the Interrupt. 
 280:Generated_Source\PSoC5/Interruption_CMD.c **** *
 281:Generated_Source\PSoC5/Interruption_CMD.c **** *   Note calling Interruption_CMD_Start or Interruption_CMD_StartEx will 
 282:Generated_Source\PSoC5/Interruption_CMD.c **** *   override any effect this API would have had. This API should only be called
 283:Generated_Source\PSoC5/Interruption_CMD.c **** *   after Interruption_CMD_Start or Interruption_CMD_StartEx has been called. 
 284:Generated_Source\PSoC5/Interruption_CMD.c **** *   To set the initial priority for the component, use the Design-Wide Resources
 285:Generated_Source\PSoC5/Interruption_CMD.c **** *   Interrupt Editor.
 286:Generated_Source\PSoC5/Interruption_CMD.c **** *
 287:Generated_Source\PSoC5/Interruption_CMD.c **** *   Note This API has no effect on Non-maskable interrupt NMI).
 288:Generated_Source\PSoC5/Interruption_CMD.c **** *
 289:Generated_Source\PSoC5/Interruption_CMD.c **** * Parameters:
 290:Generated_Source\PSoC5/Interruption_CMD.c **** *   priority: Priority of the interrupt, 0 being the highest priority
 291:Generated_Source\PSoC5/Interruption_CMD.c **** *             PSoC 3 and PSoC 5LP: Priority is from 0 to 7.
 292:Generated_Source\PSoC5/Interruption_CMD.c **** *             PSoC 4: Priority is from 0 to 3.
 293:Generated_Source\PSoC5/Interruption_CMD.c **** *
 294:Generated_Source\PSoC5/Interruption_CMD.c **** * Return:
 295:Generated_Source\PSoC5/Interruption_CMD.c **** *   None
 296:Generated_Source\PSoC5/Interruption_CMD.c **** *
 297:Generated_Source\PSoC5/Interruption_CMD.c **** *******************************************************************************/
 298:Generated_Source\PSoC5/Interruption_CMD.c **** void Interruption_CMD_SetPriority(uint8 priority)
 299:Generated_Source\PSoC5/Interruption_CMD.c **** {
 185              		.loc 1 299 0
 186              		.cfi_startproc
 187              		@ args = 0, pretend = 0, frame = 0
 188              		@ frame_needed = 0, uses_anonymous_args = 0
 189              		@ link register save eliminated.
 190              	.LVL25:
 300:Generated_Source\PSoC5/Interruption_CMD.c ****     *Interruption_CMD_INTC_PRIOR = priority << 5;
 191              		.loc 1 300 0
 192 0000 4001     		lsls	r0, r0, #5
 193              	.LVL26:
 194 0002 C0B2     		uxtb	r0, r0
 195 0004 014B     		ldr	r3, .L16
 196 0006 1870     		strb	r0, [r3]
 197 0008 7047     		bx	lr
 198              	.L17:
 199 000a 00BF     		.align	2
 200              	.L16:
 201 000c 00E400E0 		.word	-536812544
 202              		.cfi_endproc
 203              	.LFE69:
 204              		.size	Interruption_CMD_SetPriority, .-Interruption_CMD_SetPriority
 205              		.section	.text.Interruption_CMD_GetPriority,"ax",%progbits
 206              		.align	2
 207              		.global	Interruption_CMD_GetPriority
 208              		.thumb
 209              		.thumb_func
 210              		.type	Interruption_CMD_GetPriority, %function
 211              	Interruption_CMD_GetPriority:
 212              	.LFB70:
 301:Generated_Source\PSoC5/Interruption_CMD.c **** }
ARM GAS  C:\Users\LESPIA~1\AppData\Local\Temp\ccbZmrjD.s 			page 10


 302:Generated_Source\PSoC5/Interruption_CMD.c **** 
 303:Generated_Source\PSoC5/Interruption_CMD.c **** 
 304:Generated_Source\PSoC5/Interruption_CMD.c **** /*******************************************************************************
 305:Generated_Source\PSoC5/Interruption_CMD.c **** * Function Name: Interruption_CMD_GetPriority
 306:Generated_Source\PSoC5/Interruption_CMD.c **** ********************************************************************************
 307:Generated_Source\PSoC5/Interruption_CMD.c **** *
 308:Generated_Source\PSoC5/Interruption_CMD.c **** * Summary:
 309:Generated_Source\PSoC5/Interruption_CMD.c **** *   Gets the Priority of the Interrupt.
 310:Generated_Source\PSoC5/Interruption_CMD.c **** *
 311:Generated_Source\PSoC5/Interruption_CMD.c **** * Parameters:
 312:Generated_Source\PSoC5/Interruption_CMD.c **** *   None
 313:Generated_Source\PSoC5/Interruption_CMD.c **** *
 314:Generated_Source\PSoC5/Interruption_CMD.c **** * Return:
 315:Generated_Source\PSoC5/Interruption_CMD.c **** *   Priority of the interrupt, 0 being the highest priority
 316:Generated_Source\PSoC5/Interruption_CMD.c **** *    PSoC 3 and PSoC 5LP: Priority is from 0 to 7.
 317:Generated_Source\PSoC5/Interruption_CMD.c **** *    PSoC 4: Priority is from 0 to 3.
 318:Generated_Source\PSoC5/Interruption_CMD.c **** *
 319:Generated_Source\PSoC5/Interruption_CMD.c **** *******************************************************************************/
 320:Generated_Source\PSoC5/Interruption_CMD.c **** uint8 Interruption_CMD_GetPriority(void)
 321:Generated_Source\PSoC5/Interruption_CMD.c **** {
 213              		.loc 1 321 0
 214              		.cfi_startproc
 215              		@ args = 0, pretend = 0, frame = 0
 216              		@ frame_needed = 0, uses_anonymous_args = 0
 217              		@ link register save eliminated.
 322:Generated_Source\PSoC5/Interruption_CMD.c ****     uint8 priority;
 323:Generated_Source\PSoC5/Interruption_CMD.c **** 
 324:Generated_Source\PSoC5/Interruption_CMD.c **** 
 325:Generated_Source\PSoC5/Interruption_CMD.c ****     priority = *Interruption_CMD_INTC_PRIOR >> 5;
 218              		.loc 1 325 0
 219 0000 014B     		ldr	r3, .L19
 220 0002 1878     		ldrb	r0, [r3]	@ zero_extendqisi2
 221              	.LVL27:
 326:Generated_Source\PSoC5/Interruption_CMD.c **** 
 327:Generated_Source\PSoC5/Interruption_CMD.c ****     return priority;
 328:Generated_Source\PSoC5/Interruption_CMD.c **** }
 222              		.loc 1 328 0
 223 0004 4009     		lsrs	r0, r0, #5
 224              	.LVL28:
 225 0006 7047     		bx	lr
 226              	.L20:
 227              		.align	2
 228              	.L19:
 229 0008 00E400E0 		.word	-536812544
 230              		.cfi_endproc
 231              	.LFE70:
 232              		.size	Interruption_CMD_GetPriority, .-Interruption_CMD_GetPriority
 233              		.section	.text.Interruption_CMD_Enable,"ax",%progbits
 234              		.align	2
 235              		.global	Interruption_CMD_Enable
 236              		.thumb
 237              		.thumb_func
 238              		.type	Interruption_CMD_Enable, %function
 239              	Interruption_CMD_Enable:
 240              	.LFB71:
 329:Generated_Source\PSoC5/Interruption_CMD.c **** 
 330:Generated_Source\PSoC5/Interruption_CMD.c **** 
ARM GAS  C:\Users\LESPIA~1\AppData\Local\Temp\ccbZmrjD.s 			page 11


 331:Generated_Source\PSoC5/Interruption_CMD.c **** /*******************************************************************************
 332:Generated_Source\PSoC5/Interruption_CMD.c **** * Function Name: Interruption_CMD_Enable
 333:Generated_Source\PSoC5/Interruption_CMD.c **** ********************************************************************************
 334:Generated_Source\PSoC5/Interruption_CMD.c **** *
 335:Generated_Source\PSoC5/Interruption_CMD.c **** * Summary:
 336:Generated_Source\PSoC5/Interruption_CMD.c **** *   Enables the interrupt to the interrupt controller. Do not call this function
 337:Generated_Source\PSoC5/Interruption_CMD.c **** *   unless ISR_Start() has been called or the functionality of the ISR_Start() 
 338:Generated_Source\PSoC5/Interruption_CMD.c **** *   function, which sets the vector and the priority, has been called.
 339:Generated_Source\PSoC5/Interruption_CMD.c **** *
 340:Generated_Source\PSoC5/Interruption_CMD.c **** * Parameters:
 341:Generated_Source\PSoC5/Interruption_CMD.c **** *   None
 342:Generated_Source\PSoC5/Interruption_CMD.c **** *
 343:Generated_Source\PSoC5/Interruption_CMD.c **** * Return:
 344:Generated_Source\PSoC5/Interruption_CMD.c **** *   None
 345:Generated_Source\PSoC5/Interruption_CMD.c **** *
 346:Generated_Source\PSoC5/Interruption_CMD.c **** *******************************************************************************/
 347:Generated_Source\PSoC5/Interruption_CMD.c **** void Interruption_CMD_Enable(void)
 348:Generated_Source\PSoC5/Interruption_CMD.c **** {
 241              		.loc 1 348 0
 242              		.cfi_startproc
 243              		@ args = 0, pretend = 0, frame = 0
 244              		@ frame_needed = 0, uses_anonymous_args = 0
 245              		@ link register save eliminated.
 349:Generated_Source\PSoC5/Interruption_CMD.c ****     /* Enable the general interrupt. */
 350:Generated_Source\PSoC5/Interruption_CMD.c ****     *Interruption_CMD_INTC_SET_EN = Interruption_CMD__INTC_MASK;
 246              		.loc 1 350 0
 247 0000 0122     		movs	r2, #1
 248 0002 014B     		ldr	r3, .L22
 249 0004 1A60     		str	r2, [r3]
 250 0006 7047     		bx	lr
 251              	.L23:
 252              		.align	2
 253              	.L22:
 254 0008 00E100E0 		.word	-536813312
 255              		.cfi_endproc
 256              	.LFE71:
 257              		.size	Interruption_CMD_Enable, .-Interruption_CMD_Enable
 258              		.section	.text.Interruption_CMD_GetState,"ax",%progbits
 259              		.align	2
 260              		.global	Interruption_CMD_GetState
 261              		.thumb
 262              		.thumb_func
 263              		.type	Interruption_CMD_GetState, %function
 264              	Interruption_CMD_GetState:
 265              	.LFB72:
 351:Generated_Source\PSoC5/Interruption_CMD.c **** }
 352:Generated_Source\PSoC5/Interruption_CMD.c **** 
 353:Generated_Source\PSoC5/Interruption_CMD.c **** 
 354:Generated_Source\PSoC5/Interruption_CMD.c **** /*******************************************************************************
 355:Generated_Source\PSoC5/Interruption_CMD.c **** * Function Name: Interruption_CMD_GetState
 356:Generated_Source\PSoC5/Interruption_CMD.c **** ********************************************************************************
 357:Generated_Source\PSoC5/Interruption_CMD.c **** *
 358:Generated_Source\PSoC5/Interruption_CMD.c **** * Summary:
 359:Generated_Source\PSoC5/Interruption_CMD.c **** *   Gets the state (enabled, disabled) of the Interrupt.
 360:Generated_Source\PSoC5/Interruption_CMD.c **** *
 361:Generated_Source\PSoC5/Interruption_CMD.c **** * Parameters:
 362:Generated_Source\PSoC5/Interruption_CMD.c **** *   None
ARM GAS  C:\Users\LESPIA~1\AppData\Local\Temp\ccbZmrjD.s 			page 12


 363:Generated_Source\PSoC5/Interruption_CMD.c **** *
 364:Generated_Source\PSoC5/Interruption_CMD.c **** * Return:
 365:Generated_Source\PSoC5/Interruption_CMD.c **** *   1 if enabled, 0 if disabled.
 366:Generated_Source\PSoC5/Interruption_CMD.c **** *
 367:Generated_Source\PSoC5/Interruption_CMD.c **** *******************************************************************************/
 368:Generated_Source\PSoC5/Interruption_CMD.c **** uint8 Interruption_CMD_GetState(void)
 369:Generated_Source\PSoC5/Interruption_CMD.c **** {
 266              		.loc 1 369 0
 267              		.cfi_startproc
 268              		@ args = 0, pretend = 0, frame = 0
 269              		@ frame_needed = 0, uses_anonymous_args = 0
 270              		@ link register save eliminated.
 370:Generated_Source\PSoC5/Interruption_CMD.c ****     /* Get the state of the general interrupt. */
 371:Generated_Source\PSoC5/Interruption_CMD.c ****     return ((*Interruption_CMD_INTC_SET_EN & (uint32)Interruption_CMD__INTC_MASK) != 0u) ? 1u:0u;
 271              		.loc 1 371 0
 272 0000 024B     		ldr	r3, .L25
 273 0002 1868     		ldr	r0, [r3]
 372:Generated_Source\PSoC5/Interruption_CMD.c **** }
 274              		.loc 1 372 0
 275 0004 00F00100 		and	r0, r0, #1
 276 0008 7047     		bx	lr
 277              	.L26:
 278 000a 00BF     		.align	2
 279              	.L25:
 280 000c 00E100E0 		.word	-536813312
 281              		.cfi_endproc
 282              	.LFE72:
 283              		.size	Interruption_CMD_GetState, .-Interruption_CMD_GetState
 284              		.section	.text.Interruption_CMD_Disable,"ax",%progbits
 285              		.align	2
 286              		.global	Interruption_CMD_Disable
 287              		.thumb
 288              		.thumb_func
 289              		.type	Interruption_CMD_Disable, %function
 290              	Interruption_CMD_Disable:
 291              	.LFB73:
 373:Generated_Source\PSoC5/Interruption_CMD.c **** 
 374:Generated_Source\PSoC5/Interruption_CMD.c **** 
 375:Generated_Source\PSoC5/Interruption_CMD.c **** /*******************************************************************************
 376:Generated_Source\PSoC5/Interruption_CMD.c **** * Function Name: Interruption_CMD_Disable
 377:Generated_Source\PSoC5/Interruption_CMD.c **** ********************************************************************************
 378:Generated_Source\PSoC5/Interruption_CMD.c **** *
 379:Generated_Source\PSoC5/Interruption_CMD.c **** * Summary:
 380:Generated_Source\PSoC5/Interruption_CMD.c **** *   Disables the Interrupt in the interrupt controller.
 381:Generated_Source\PSoC5/Interruption_CMD.c **** *
 382:Generated_Source\PSoC5/Interruption_CMD.c **** * Parameters:
 383:Generated_Source\PSoC5/Interruption_CMD.c **** *   None
 384:Generated_Source\PSoC5/Interruption_CMD.c **** *
 385:Generated_Source\PSoC5/Interruption_CMD.c **** * Return:
 386:Generated_Source\PSoC5/Interruption_CMD.c **** *   None
 387:Generated_Source\PSoC5/Interruption_CMD.c **** *
 388:Generated_Source\PSoC5/Interruption_CMD.c **** *******************************************************************************/
 389:Generated_Source\PSoC5/Interruption_CMD.c **** void Interruption_CMD_Disable(void)
 390:Generated_Source\PSoC5/Interruption_CMD.c **** {
 292              		.loc 1 390 0
 293              		.cfi_startproc
 294              		@ args = 0, pretend = 0, frame = 0
ARM GAS  C:\Users\LESPIA~1\AppData\Local\Temp\ccbZmrjD.s 			page 13


 295              		@ frame_needed = 0, uses_anonymous_args = 0
 296              		@ link register save eliminated.
 391:Generated_Source\PSoC5/Interruption_CMD.c ****     /* Disable the general interrupt. */
 392:Generated_Source\PSoC5/Interruption_CMD.c ****     *Interruption_CMD_INTC_CLR_EN = Interruption_CMD__INTC_MASK;
 297              		.loc 1 392 0
 298 0000 0122     		movs	r2, #1
 299 0002 014B     		ldr	r3, .L28
 300 0004 1A60     		str	r2, [r3]
 301 0006 7047     		bx	lr
 302              	.L29:
 303              		.align	2
 304              	.L28:
 305 0008 80E100E0 		.word	-536813184
 306              		.cfi_endproc
 307              	.LFE73:
 308              		.size	Interruption_CMD_Disable, .-Interruption_CMD_Disable
 309              		.section	.text.Interruption_CMD_Start,"ax",%progbits
 310              		.align	2
 311              		.global	Interruption_CMD_Start
 312              		.thumb
 313              		.thumb_func
 314              		.type	Interruption_CMD_Start, %function
 315              	Interruption_CMD_Start:
 316              	.LFB63:
  64:Generated_Source\PSoC5/Interruption_CMD.c ****     /* For all we know the interrupt is active. */
 317              		.loc 1 64 0
 318              		.cfi_startproc
 319              		@ args = 0, pretend = 0, frame = 0
 320              		@ frame_needed = 0, uses_anonymous_args = 0
 321 0000 08B5     		push	{r3, lr}
 322              		.cfi_def_cfa_offset 8
 323              		.cfi_offset 3, -8
 324              		.cfi_offset 14, -4
  66:Generated_Source\PSoC5/Interruption_CMD.c **** 
 325              		.loc 1 66 0
 326 0002 FFF7FEFF 		bl	Interruption_CMD_Disable
 327              	.LVL29:
  69:Generated_Source\PSoC5/Interruption_CMD.c **** 
 328              		.loc 1 69 0
 329 0006 0448     		ldr	r0, .L32
 330 0008 FFF7FEFF 		bl	Interruption_CMD_SetVector
 331              	.LVL30:
  72:Generated_Source\PSoC5/Interruption_CMD.c **** 
 332              		.loc 1 72 0
 333 000c 0720     		movs	r0, #7
 334 000e FFF7FEFF 		bl	Interruption_CMD_SetPriority
 335              	.LVL31:
  75:Generated_Source\PSoC5/Interruption_CMD.c **** }
 336              		.loc 1 75 0
 337 0012 FFF7FEFF 		bl	Interruption_CMD_Enable
 338              	.LVL32:
 339 0016 08BD     		pop	{r3, pc}
 340              	.L33:
 341              		.align	2
 342              	.L32:
 343 0018 00000000 		.word	Interruption_CMD_Interrupt
 344              		.cfi_endproc
ARM GAS  C:\Users\LESPIA~1\AppData\Local\Temp\ccbZmrjD.s 			page 14


 345              	.LFE63:
 346              		.size	Interruption_CMD_Start, .-Interruption_CMD_Start
 347              		.section	.text.Interruption_CMD_StartEx,"ax",%progbits
 348              		.align	2
 349              		.global	Interruption_CMD_StartEx
 350              		.thumb
 351              		.thumb_func
 352              		.type	Interruption_CMD_StartEx, %function
 353              	Interruption_CMD_StartEx:
 354              	.LFB64:
 107:Generated_Source\PSoC5/Interruption_CMD.c ****     /* For all we know the interrupt is active. */
 355              		.loc 1 107 0
 356              		.cfi_startproc
 357              		@ args = 0, pretend = 0, frame = 0
 358              		@ frame_needed = 0, uses_anonymous_args = 0
 359              	.LVL33:
 360 0000 10B5     		push	{r4, lr}
 361              		.cfi_def_cfa_offset 8
 362              		.cfi_offset 4, -8
 363              		.cfi_offset 14, -4
 364 0002 0446     		mov	r4, r0
 109:Generated_Source\PSoC5/Interruption_CMD.c **** 
 365              		.loc 1 109 0
 366 0004 FFF7FEFF 		bl	Interruption_CMD_Disable
 367              	.LVL34:
 112:Generated_Source\PSoC5/Interruption_CMD.c **** 
 368              		.loc 1 112 0
 369 0008 2046     		mov	r0, r4
 370 000a FFF7FEFF 		bl	Interruption_CMD_SetVector
 371              	.LVL35:
 115:Generated_Source\PSoC5/Interruption_CMD.c **** 
 372              		.loc 1 115 0
 373 000e 0720     		movs	r0, #7
 374 0010 FFF7FEFF 		bl	Interruption_CMD_SetPriority
 375              	.LVL36:
 118:Generated_Source\PSoC5/Interruption_CMD.c **** }
 376              		.loc 1 118 0
 377 0014 FFF7FEFF 		bl	Interruption_CMD_Enable
 378              	.LVL37:
 379 0018 10BD     		pop	{r4, pc}
 380              		.cfi_endproc
 381              	.LFE64:
 382              		.size	Interruption_CMD_StartEx, .-Interruption_CMD_StartEx
 383 001a 00BF     		.section	.text.Interruption_CMD_Stop,"ax",%progbits
 384              		.align	2
 385              		.global	Interruption_CMD_Stop
 386              		.thumb
 387              		.thumb_func
 388              		.type	Interruption_CMD_Stop, %function
 389              	Interruption_CMD_Stop:
 390              	.LFB65:
 137:Generated_Source\PSoC5/Interruption_CMD.c ****     /* Disable this interrupt. */
 391              		.loc 1 137 0
 392              		.cfi_startproc
 393              		@ args = 0, pretend = 0, frame = 0
 394              		@ frame_needed = 0, uses_anonymous_args = 0
 395 0000 08B5     		push	{r3, lr}
ARM GAS  C:\Users\LESPIA~1\AppData\Local\Temp\ccbZmrjD.s 			page 15


 396              		.cfi_def_cfa_offset 8
 397              		.cfi_offset 3, -8
 398              		.cfi_offset 14, -4
 139:Generated_Source\PSoC5/Interruption_CMD.c **** 
 399              		.loc 1 139 0
 400 0002 FFF7FEFF 		bl	Interruption_CMD_Disable
 401              	.LVL38:
 142:Generated_Source\PSoC5/Interruption_CMD.c **** }
 402              		.loc 1 142 0
 403 0006 0248     		ldr	r0, .L38
 404 0008 FFF7FEFF 		bl	Interruption_CMD_SetVector
 405              	.LVL39:
 406 000c 08BD     		pop	{r3, pc}
 407              	.L39:
 408 000e 00BF     		.align	2
 409              	.L38:
 410 0010 00000000 		.word	IntDefaultHandler
 411              		.cfi_endproc
 412              	.LFE65:
 413              		.size	Interruption_CMD_Stop, .-Interruption_CMD_Stop
 414              		.section	.text.Interruption_CMD_SetPending,"ax",%progbits
 415              		.align	2
 416              		.global	Interruption_CMD_SetPending
 417              		.thumb
 418              		.thumb_func
 419              		.type	Interruption_CMD_SetPending, %function
 420              	Interruption_CMD_SetPending:
 421              	.LFB74:
 393:Generated_Source\PSoC5/Interruption_CMD.c **** }
 394:Generated_Source\PSoC5/Interruption_CMD.c **** 
 395:Generated_Source\PSoC5/Interruption_CMD.c **** 
 396:Generated_Source\PSoC5/Interruption_CMD.c **** /*******************************************************************************
 397:Generated_Source\PSoC5/Interruption_CMD.c **** * Function Name: Interruption_CMD_SetPending
 398:Generated_Source\PSoC5/Interruption_CMD.c **** ********************************************************************************
 399:Generated_Source\PSoC5/Interruption_CMD.c **** *
 400:Generated_Source\PSoC5/Interruption_CMD.c **** * Summary:
 401:Generated_Source\PSoC5/Interruption_CMD.c **** *   Causes the Interrupt to enter the pending state, a software method of
 402:Generated_Source\PSoC5/Interruption_CMD.c **** *   generating the interrupt.
 403:Generated_Source\PSoC5/Interruption_CMD.c **** *
 404:Generated_Source\PSoC5/Interruption_CMD.c **** * Parameters:
 405:Generated_Source\PSoC5/Interruption_CMD.c **** *   None
 406:Generated_Source\PSoC5/Interruption_CMD.c **** *
 407:Generated_Source\PSoC5/Interruption_CMD.c **** * Return:
 408:Generated_Source\PSoC5/Interruption_CMD.c **** *   None
 409:Generated_Source\PSoC5/Interruption_CMD.c **** *
 410:Generated_Source\PSoC5/Interruption_CMD.c **** * Side Effects:
 411:Generated_Source\PSoC5/Interruption_CMD.c **** *   If interrupts are enabled and the interrupt is set up properly, the ISR is
 412:Generated_Source\PSoC5/Interruption_CMD.c **** *   entered (depending on the priority of this interrupt and other pending 
 413:Generated_Source\PSoC5/Interruption_CMD.c **** *   interrupts).
 414:Generated_Source\PSoC5/Interruption_CMD.c **** *
 415:Generated_Source\PSoC5/Interruption_CMD.c **** *******************************************************************************/
 416:Generated_Source\PSoC5/Interruption_CMD.c **** void Interruption_CMD_SetPending(void)
 417:Generated_Source\PSoC5/Interruption_CMD.c **** {
 422              		.loc 1 417 0
 423              		.cfi_startproc
 424              		@ args = 0, pretend = 0, frame = 0
 425              		@ frame_needed = 0, uses_anonymous_args = 0
ARM GAS  C:\Users\LESPIA~1\AppData\Local\Temp\ccbZmrjD.s 			page 16


 426              		@ link register save eliminated.
 418:Generated_Source\PSoC5/Interruption_CMD.c ****     *Interruption_CMD_INTC_SET_PD = Interruption_CMD__INTC_MASK;
 427              		.loc 1 418 0
 428 0000 0122     		movs	r2, #1
 429 0002 014B     		ldr	r3, .L41
 430 0004 1A60     		str	r2, [r3]
 431 0006 7047     		bx	lr
 432              	.L42:
 433              		.align	2
 434              	.L41:
 435 0008 00E200E0 		.word	-536813056
 436              		.cfi_endproc
 437              	.LFE74:
 438              		.size	Interruption_CMD_SetPending, .-Interruption_CMD_SetPending
 439              		.section	.text.Interruption_CMD_ClearPending,"ax",%progbits
 440              		.align	2
 441              		.global	Interruption_CMD_ClearPending
 442              		.thumb
 443              		.thumb_func
 444              		.type	Interruption_CMD_ClearPending, %function
 445              	Interruption_CMD_ClearPending:
 446              	.LFB75:
 419:Generated_Source\PSoC5/Interruption_CMD.c **** }
 420:Generated_Source\PSoC5/Interruption_CMD.c **** 
 421:Generated_Source\PSoC5/Interruption_CMD.c **** 
 422:Generated_Source\PSoC5/Interruption_CMD.c **** /*******************************************************************************
 423:Generated_Source\PSoC5/Interruption_CMD.c **** * Function Name: Interruption_CMD_ClearPending
 424:Generated_Source\PSoC5/Interruption_CMD.c **** ********************************************************************************
 425:Generated_Source\PSoC5/Interruption_CMD.c **** *
 426:Generated_Source\PSoC5/Interruption_CMD.c **** * Summary:
 427:Generated_Source\PSoC5/Interruption_CMD.c **** *   Clears a pending interrupt in the interrupt controller.
 428:Generated_Source\PSoC5/Interruption_CMD.c **** *
 429:Generated_Source\PSoC5/Interruption_CMD.c **** *   Note Some interrupt sources are clear-on-read and require the block 
 430:Generated_Source\PSoC5/Interruption_CMD.c **** *   interrupt/status register to be read/cleared with the appropriate block API 
 431:Generated_Source\PSoC5/Interruption_CMD.c **** *   (GPIO, UART, and so on). Otherwise the ISR will continue to remain in 
 432:Generated_Source\PSoC5/Interruption_CMD.c **** *   pending state even though the interrupt itself is cleared using this API.
 433:Generated_Source\PSoC5/Interruption_CMD.c **** *
 434:Generated_Source\PSoC5/Interruption_CMD.c **** * Parameters:
 435:Generated_Source\PSoC5/Interruption_CMD.c **** *   None
 436:Generated_Source\PSoC5/Interruption_CMD.c **** *
 437:Generated_Source\PSoC5/Interruption_CMD.c **** * Return:
 438:Generated_Source\PSoC5/Interruption_CMD.c **** *   None
 439:Generated_Source\PSoC5/Interruption_CMD.c **** *
 440:Generated_Source\PSoC5/Interruption_CMD.c **** *******************************************************************************/
 441:Generated_Source\PSoC5/Interruption_CMD.c **** void Interruption_CMD_ClearPending(void)
 442:Generated_Source\PSoC5/Interruption_CMD.c **** {
 447              		.loc 1 442 0
 448              		.cfi_startproc
 449              		@ args = 0, pretend = 0, frame = 0
 450              		@ frame_needed = 0, uses_anonymous_args = 0
 451              		@ link register save eliminated.
 443:Generated_Source\PSoC5/Interruption_CMD.c ****     *Interruption_CMD_INTC_CLR_PD = Interruption_CMD__INTC_MASK;
 452              		.loc 1 443 0
 453 0000 0122     		movs	r2, #1
 454 0002 014B     		ldr	r3, .L44
 455 0004 1A60     		str	r2, [r3]
 456 0006 7047     		bx	lr
ARM GAS  C:\Users\LESPIA~1\AppData\Local\Temp\ccbZmrjD.s 			page 17


 457              	.L45:
 458              		.align	2
 459              	.L44:
 460 0008 80E200E0 		.word	-536812928
 461              		.cfi_endproc
 462              	.LFE75:
 463              		.size	Interruption_CMD_ClearPending, .-Interruption_CMD_ClearPending
 464              		.text
 465              	.Letext0:
 466              		.file 2 "c:\\program files (x86)\\cypress\\psoc creator\\4.4\\psoc creator\\import\\gnu\\arm\\5.4.
 467              		.file 3 "c:\\program files (x86)\\cypress\\psoc creator\\4.4\\psoc creator\\import\\gnu\\arm\\5.4.
 468              		.file 4 "Generated_Source\\PSoC5/cytypes.h"
 469              		.file 5 "Generated_Source\\PSoC5/UART_test.h"
 470              		.file 6 "./utilities.h"
 471              		.file 7 "Generated_Source\\PSoC5/core_cm3.h"